target datalayout = "e-m:e-p270:32:32-p271:32:32-p272:64:64-i64:64-i128:128-f80:128-n8:16:32:64-S128"
target triple = "x86_64-pc-linux-gnu"

@.str.183 = private unnamed_addr constant [8 x i8] c"Unknown\00", align 1
@.str.339 = private unnamed_addr constant [19 x i8] c"Distributed Search\00", align 1
@.str.403 = private unnamed_addr constant [16 x i8] c"Peer Connection\00", align 1
@.str.404 = private unnamed_addr constant [14 x i8] c"File Transfer\00", align 1

; Function Attrs: nounwind null_pointer_is_valid sspstrong uwtable
define internal ptr @connection_type(ptr noundef %0) #4 {
  %2 = alloca ptr, align 8
  %3 = alloca ptr, align 8
  store ptr %0, ptr %3, align 8
  %4 = load ptr, ptr %3, align 8
  %5 = call i64 @strlen(ptr noundef %4) #7
  %6 = icmp ne i64 %5, 1
  br i1 %6, label %7, label %8

7:                                                ; preds = %1
  store ptr @.str.183, ptr %2, align 8
  br label %30

8:                                                ; preds = %1
  %9 = load ptr, ptr %3, align 8
  %10 = getelementptr i8, ptr %9, i64 0
  %11 = load i8, ptr %10, align 1
  %12 = sext i8 %11 to i32
  %13 = icmp eq i32 %12, 68
  br i1 %13, label %14, label %15

14:                                               ; preds = %8
  store ptr @.str.339, ptr %2, align 8
  br label %30

15:                                               ; preds = %8
  %16 = load ptr, ptr %3, align 8
  %17 = getelementptr i8, ptr %16, i64 0
  %18 = load i8, ptr %17, align 1
  %19 = sext i8 %18 to i32
  %20 = icmp eq i32 %19, 80
  br i1 %20, label %21, label %22

21:                                               ; preds = %15
  store ptr @.str.403, ptr %2, align 8
  br label %30

22:                                               ; preds = %15
  %23 = load ptr, ptr %3, align 8
  %24 = getelementptr i8, ptr %23, i64 0
  %25 = load i8, ptr %24, align 1
  %26 = sext i8 %25 to i32
  %27 = icmp eq i32 %26, 70
  br i1 %27, label %28, label %29

28:                                               ; preds = %22
  store ptr @.str.404, ptr %2, align 8
  br label %30

29:                                               ; preds = %22
  store ptr @.str.183, ptr %2, align 8
  br label %30

30:                                               ; preds = %29, %28, %21, %14, %7
  %31 = load ptr, ptr %2, align 8
  ret ptr %31
}