; Function Attrs: mustprogress nofree nounwind null_pointer_is_valid sspstrong willreturn memory(argmem: read) uwtable
define internal fastcc noundef nonnull ptr @connection_type(ptr noundef readonly captures(none) %0) unnamed_addr #3 {
  %2 = tail call i64 @strlen(ptr noundef %0) #6
  %.not = icmp eq i64 %2, 1
  br i1 %.not, label %3, label %8

3:                                                ; preds = %1
  %4 = load i8, ptr %0, align 1
  switch i8 %4, label %7 [
    i8 68, label %8
    i8 80, label %5
    i8 70, label %6
  ]

5:                                                ; preds = %3
  br label %8

6:                                                ; preds = %3
  br label %8

7:                                                ; preds = %3
  br label %8

8:                                                ; preds = %3, %1, %7, %6, %5
  %.0 = phi ptr [ @.str.403, %5 ], [ @.str.404, %6 ], [ @.str.183, %7 ], [ @.str.183, %1 ], [ @.str.339, %3 ]
  ret ptr %.0
}